target datalayout = "e-m:e-p270:32:32-p271:32:32-p272:64:64-i64:64-i128:128-f80:128-n8:16:32:64-S128"
target triple = "x86_64-pc-linux-gnu"

%struct.H5O_token_t = type { [16 x i8] }
%struct.trav_info_t = type { i64, i64, ptr, i64, ptr, %struct.symlink_trav_t, ptr }
%struct.symlink_trav_t = type { i64, i64, ptr, i8 }
%struct.trav_path_t = type { ptr, i32, %struct.H5O_token_t, i64 }
%struct.H5O_info2_t = type { i64, %struct.H5O_token_t, i32, i32, i64, i64, i64, i64, i64 }

@.str = private unnamed_addr constant [2 x i8] c".\00", align 1

; Function Attrs: nounwind uwtable
define void @trav_fileinfo_add(ptr noundef %0, i64 noundef %1) #0 {
  %3 = alloca ptr, align 8
  %4 = alloca i64, align 8
  %5 = alloca %struct.H5O_info2_t, align 8
  %6 = alloca i64, align 8
  store ptr %0, ptr %3, align 8, !tbaa !7
  store i64 %1, ptr %4, align 8, !tbaa !21
  call void @llvm.lifetime.start.p0(i64 72, ptr %5) #10
  call void @llvm.lifetime.start.p0(i64 8, ptr %6) #10
  %7 = load ptr, ptr %3, align 8, !tbaa !7
  %8 = getelementptr inbounds nuw %struct.trav_info_t, ptr %7, i32 0, i32 1
  %9 = load i64, ptr %8, align 8, !tbaa !12
  %10 = sub i64 %9, 1
  store i64 %10, ptr %6, align 8, !tbaa !21
  %11 = load ptr, ptr %3, align 8, !tbaa !7
  %12 = getelementptr inbounds nuw %struct.trav_info_t, ptr %11, i32 0, i32 4
  %13 = load ptr, ptr %12, align 8, !tbaa !20
  %14 = load i64, ptr %6, align 8, !tbaa !21
  %15 = getelementptr inbounds nuw %struct.trav_path_t, ptr %13, i64 %14
  %16 = getelementptr inbounds nuw %struct.trav_path_t, ptr %15, i32 0, i32 0
  %17 = load ptr, ptr %16, align 8, !tbaa !22
  %18 = icmp ne ptr %17, null
  br i1 %18, label %19, label %39

19:                                               ; preds = %2
  %20 = load ptr, ptr %3, align 8, !tbaa !7
  %21 = getelementptr inbounds nuw %struct.trav_info_t, ptr %20, i32 0, i32 4
  %22 = load ptr, ptr %21, align 8, !tbaa !20
  %23 = load i64, ptr %6, align 8, !tbaa !21
  %24 = getelementptr inbounds nuw %struct.trav_path_t, ptr %22, i64 %23
  %25 = getelementptr inbounds nuw %struct.trav_path_t, ptr %24, i32 0, i32 0
  %26 = load ptr, ptr %25, align 8, !tbaa !22
  %27 = call i32 @strcmp(ptr noundef %26, ptr noundef @.str) #12
  %28 = icmp ne i32 %27, 0
  br i1 %28, label %29, label %39

29:                                               ; preds = %19
  %30 = load i64, ptr %4, align 8, !tbaa !21
  %31 = load ptr, ptr %3, align 8, !tbaa !7
  %32 = getelementptr inbounds nuw %struct.trav_info_t, ptr %31, i32 0, i32 4
  %33 = load ptr, ptr %32, align 8, !tbaa !20
  %34 = load i64, ptr %6, align 8, !tbaa !21
  %35 = getelementptr inbounds nuw %struct.trav_path_t, ptr %33, i64 %34
  %36 = getelementptr inbounds nuw %struct.trav_path_t, ptr %35, i32 0, i32 0
  %37 = load ptr, ptr %36, align 8, !tbaa !22
  %38 = call i32 @H5Oget_info_by_name3(i64 noundef %30, ptr noundef %37, ptr noundef %5, i32 noundef 1, i64 noundef 0)
  br label %42

39:                                               ; preds = %19, %2
  %40 = load i64, ptr %4, align 8, !tbaa !21
  %41 = call i32 @H5Oget_info3(i64 noundef %40, ptr noundef %5, i32 noundef 1)
  br label %42

42:                                               ; preds = %39, %29
  %43 = load ptr, ptr %3, align 8, !tbaa !7
  %44 = getelementptr inbounds nuw %struct.trav_info_t, ptr %43, i32 0, i32 4
  %45 = load ptr, ptr %44, align 8, !tbaa !20
  %46 = load i64, ptr %6, align 8, !tbaa !21
  %47 = getelementptr inbounds nuw %struct.trav_path_t, ptr %45, i64 %46
  %48 = getelementptr inbounds nuw %struct.trav_path_t, ptr %47, i32 0, i32 2
  %49 = getelementptr inbounds nuw %struct.H5O_info2_t, ptr %5, i32 0, i32 1
  call void @llvm.memcpy.p0.p0.i64(ptr align 4 %48, ptr align 8 %49, i64 16, i1 false)
  %50 = getelementptr inbounds nuw %struct.H5O_info2_t, ptr %5, i32 0, i32 0
  %51 = load i64, ptr %50, align 8, !tbaa !32
  %52 = load ptr, ptr %3, align 8, !tbaa !7
  %53 = getelementptr inbounds nuw %struct.trav_info_t, ptr %52, i32 0, i32 4
  %54 = load ptr, ptr %53, align 8, !tbaa !20
  %55 = load i64, ptr %6, align 8, !tbaa !21
  %56 = getelementptr inbounds nuw %struct.trav_path_t, ptr %54, i64 %55
  %57 = getelementptr inbounds nuw %struct.trav_path_t, ptr %56, i32 0, i32 3
  store i64 %51, ptr %57, align 8, !tbaa !26
  call void @llvm.lifetime.end.p0(i64 8, ptr %6) #10
  call void @llvm.lifetime.end.p0(i64 72, ptr %5) #10
  ret void
}