; Function Attrs: nounwind uwtable
define void @trav_fileinfo_add(ptr noundef readonly captures(none) %0, i64 noundef %1) local_unnamed_addr #1 {
  %3 = alloca %struct.H5O_info2_t, align 8
  call void @llvm.lifetime.start.p0(i64 72, ptr nonnull %3) #18
  %4 = getelementptr inbounds nuw i8, ptr %0, i64 8
  %5 = load i64, ptr %4, align 8, !tbaa !7
  %6 = add i64 %5, -1
  %7 = getelementptr inbounds nuw i8, ptr %0, i64 32
  %8 = load ptr, ptr %7, align 8, !tbaa !17
  %9 = getelementptr inbounds nuw %struct.trav_path_t, ptr %8, i64 %6
  %10 = load ptr, ptr %9, align 8, !tbaa !18
  %.not = icmp eq ptr %10, null
  br i1 %.not, label %16, label %sub_0

sub_0:                                            ; preds = %2
  %11 = load i8, ptr %10, align 1
  %.not13 = icmp eq i8 %11, 46
  br i1 %.not13, label %.tail, label %.tail.thread

.tail:                                            ; preds = %sub_0
  %12 = getelementptr inbounds nuw i8, ptr %10, i64 1
  %13 = load i8, ptr %12, align 1
  %14 = icmp eq i8 %13, 0
  br i1 %14, label %16, label %.tail.thread

.tail.thread:                                     ; preds = %sub_0, %.tail
  %15 = call i32 @H5Oget_info_by_name3(i64 noundef %1, ptr noundef nonnull %10, ptr noundef nonnull %3, i32 noundef 1, i64 noundef 0) #18
  br label %18

16:                                               ; preds = %.tail, %2
  %17 = call i32 @H5Oget_info3(i64 noundef %1, ptr noundef nonnull %3, i32 noundef 1) #18
  br label %18

18:                                               ; preds = %16, %.tail.thread
  %19 = load ptr, ptr %7, align 8, !tbaa !17
  %20 = getelementptr inbounds nuw %struct.trav_path_t, ptr %19, i64 %6, i32 2
  %21 = getelementptr inbounds nuw i8, ptr %3, i64 8
  call void @llvm.memcpy.p0.p0.i64(ptr noundef nonnull align 4 dereferenceable(16) %20, ptr noundef nonnull align 8 dereferenceable(16) %21, i64 16, i1 false)
  %22 = load i64, ptr %3, align 8, !tbaa !29
  %23 = load ptr, ptr %7, align 8, !tbaa !17
  %24 = getelementptr inbounds nuw %struct.trav_path_t, ptr %23, i64 %6, i32 3
  store i64 %22, ptr %24, align 8, !tbaa !22
  call void @llvm.lifetime.end.p0(i64 72, ptr nonnull %3) #18
  ret void
}